target datalayout = "e-m:e-p270:32:32-p271:32:32-p272:64:64-i64:64-i128:128-f80:128-n8:16:32:64-S128"
target triple = "x86_64-pc-linux-gnu"

%struct.RangeVar = type { i32, ptr, ptr, ptr, i8, i8, ptr, i32 }
%struct.List = type { i32, i32, i32, ptr, [0 x %union.ListCell] }
%union.ListCell = type { ptr }
%struct.String = type { i32, ptr }

@.str.1 = private unnamed_addr constant [12 x i8] c"namespace.c\00", align 1
@.str.23 = private unnamed_addr constant [51 x i8] c"improper relation name (too many dotted names): %s\00", align 1
@__func__.makeRangeVarFromNameList = private unnamed_addr constant [25 x i8] c"makeRangeVarFromNameList\00", align 1

; Function Attrs: inlinehint nounwind uwtable
define internal ptr @list_nth_cell(ptr noundef %0, i32 noundef %1) #7 {
  %3 = alloca ptr, align 8
  %4 = alloca i32, align 4
  store ptr %0, ptr %3, align 8
  store i32 %1, ptr %4, align 4
  %5 = load ptr, ptr %3, align 8
  %6 = getelementptr inbounds nuw %struct.List, ptr %5, i32 0, i32 3
  %7 = load ptr, ptr %6, align 8
  %8 = load i32, ptr %4, align 4
  %9 = sext i32 %8 to i64
  %10 = getelementptr inbounds %union.ListCell, ptr %7, i64 %9
  ret ptr %10
}

; Function Attrs: inlinehint nounwind uwtable
define internal i32 @list_length(ptr noundef %0) #7 {
  %2 = alloca ptr, align 8
  store ptr %0, ptr %2, align 8
  %3 = load ptr, ptr %2, align 8
  %4 = icmp ne ptr %3, null
  br i1 %4, label %5, label %9

5:                                                ; preds = %1
  %6 = load ptr, ptr %2, align 8
  %7 = getelementptr inbounds nuw %struct.List, ptr %6, i32 0, i32 1
  %8 = load i32, ptr %7, align 4
  br label %10

9:                                                ; preds = %1
  br label %10

10:                                               ; preds = %9, %5
  %11 = phi i32 [ %8, %5 ], [ 0, %9 ]
  ret i32 %11
}

; Function Attrs: nounwind uwtable
define dso_local ptr @makeRangeVarFromNameList(ptr noundef %0) #0 {
  %2 = alloca ptr, align 8
  %3 = alloca ptr, align 8
  store ptr %0, ptr %2, align 8
  call void @llvm.lifetime.start.p0(i64 8, ptr %3) #14
  %4 = call ptr @makeRangeVar(ptr noundef null, ptr noundef null, i32 noundef -1)
  store ptr %4, ptr %3, align 8
  %5 = load ptr, ptr %2, align 8
  %6 = call i32 @list_length(ptr noundef %5)
  switch i32 %6, label %52 [
    i32 1, label %7
    i32 2, label %15
    i32 3, label %30
  ]

7:                                                ; preds = %1
  %8 = load ptr, ptr %2, align 8
  %9 = call ptr @list_nth_cell(ptr noundef %8, i32 noundef 0)
  %10 = load ptr, ptr %9, align 8
  %11 = getelementptr inbounds nuw %struct.String, ptr %10, i32 0, i32 1
  %12 = load ptr, ptr %11, align 8
  %13 = load ptr, ptr %3, align 8
  %14 = getelementptr inbounds nuw %struct.RangeVar, ptr %13, i32 0, i32 3
  store ptr %12, ptr %14, align 8
  br label %66

15:                                               ; preds = %1
  %16 = load ptr, ptr %2, align 8
  %17 = call ptr @list_nth_cell(ptr noundef %16, i32 noundef 0)
  %18 = load ptr, ptr %17, align 8
  %19 = getelementptr inbounds nuw %struct.String, ptr %18, i32 0, i32 1
  %20 = load ptr, ptr %19, align 8
  %21 = load ptr, ptr %3, align 8
  %22 = getelementptr inbounds nuw %struct.RangeVar, ptr %21, i32 0, i32 2
  store ptr %20, ptr %22, align 8
  %23 = load ptr, ptr %2, align 8
  %24 = call ptr @list_nth_cell(ptr noundef %23, i32 noundef 1)
  %25 = load ptr, ptr %24, align 8
  %26 = getelementptr inbounds nuw %struct.String, ptr %25, i32 0, i32 1
  %27 = load ptr, ptr %26, align 8
  %28 = load ptr, ptr %3, align 8
  %29 = getelementptr inbounds nuw %struct.RangeVar, ptr %28, i32 0, i32 3
  store ptr %27, ptr %29, align 8
  br label %66

30:                                               ; preds = %1
  %31 = load ptr, ptr %2, align 8
  %32 = call ptr @list_nth_cell(ptr noundef %31, i32 noundef 0)
  %33 = load ptr, ptr %32, align 8
  %34 = getelementptr inbounds nuw %struct.String, ptr %33, i32 0, i32 1
  %35 = load ptr, ptr %34, align 8
  %36 = load ptr, ptr %3, align 8
  %37 = getelementptr inbounds nuw %struct.RangeVar, ptr %36, i32 0, i32 1
  store ptr %35, ptr %37, align 8
  %38 = load ptr, ptr %2, align 8
  %39 = call ptr @list_nth_cell(ptr noundef %38, i32 noundef 1)
  %40 = load ptr, ptr %39, align 8
  %41 = getelementptr inbounds nuw %struct.String, ptr %40, i32 0, i32 1
  %42 = load ptr, ptr %41, align 8
  %43 = load ptr, ptr %3, align 8
  %44 = getelementptr inbounds nuw %struct.RangeVar, ptr %43, i32 0, i32 2
  store ptr %42, ptr %44, align 8
  %45 = load ptr, ptr %2, align 8
  %46 = call ptr @list_nth_cell(ptr noundef %45, i32 noundef 2)
  %47 = load ptr, ptr %46, align 8
  %48 = getelementptr inbounds nuw %struct.String, ptr %47, i32 0, i32 1
  %49 = load ptr, ptr %48, align 8
  %50 = load ptr, ptr %3, align 8
  %51 = getelementptr inbounds nuw %struct.RangeVar, ptr %50, i32 0, i32 3
  store ptr %49, ptr %51, align 8
  br label %66

52:                                               ; preds = %1
  br label %53

53:                                               ; preds = %52
  br i1 true, label %54, label %56

54:                                               ; preds = %53
  %55 = call zeroext i1 @errstart_cold(i32 noundef 21, ptr noundef null) #16
  br i1 %55, label %58, label %63

56:                                               ; preds = %53
  %57 = call zeroext i1 @errstart(i32 noundef 21, ptr noundef null)
  br i1 %57, label %58, label %63

58:                                               ; preds = %56, %54
  %59 = call i32 @errcode(i32 noundef 16801924)
  %60 = load ptr, ptr %2, align 8
  %61 = call ptr @NameListToString(ptr noundef %60)
  %62 = call i32 (ptr, ...) @errmsg(ptr noundef @.str.23, ptr noundef %61)
  call void @errfinish(ptr noundef @.str.1, i32 noundef 3576, ptr noundef @__func__.makeRangeVarFromNameList)
  br label %63

63:                                               ; preds = %58, %56, %54
  unreachable

64:                                               ; No predecessors!
  br label %65

65:                                               ; preds = %64
  br label %66

66:                                               ; preds = %65, %30, %15, %7
  %67 = load ptr, ptr %3, align 8
  call void @llvm.lifetime.end.p0(i64 8, ptr %3) #14
  ret ptr %67
}