; Function Attrs: nounwind uwtable
define dso_local ptr @makeRangeVarFromNameList(ptr noundef captures(address_is_null) %0) local_unnamed_addr #0 {
  %2 = tail call ptr @makeRangeVar(ptr noundef null, ptr noundef null, i32 noundef -1) #19
  %.not.i = icmp eq ptr %0, null
  br i1 %.not.i, label %list_length.exit.thread, label %list_length.exit

list_length.exit:                                 ; preds = %1
  %3 = getelementptr inbounds nuw i8, ptr %0, i64 4
  %4 = load i32, ptr %3, align 4
  switch i32 %4, label %list_length.exit.thread [
    i32 1, label %5
    i32 2, label %7
    i32 3, label %14
  ]

5:                                                ; preds = %list_length.exit
  %6 = getelementptr i8, ptr %0, i64 16
  %.val19 = load ptr, ptr %6, align 8
  br label %30

7:                                                ; preds = %list_length.exit
  %8 = getelementptr i8, ptr %0, i64 16
  %.val18 = load ptr, ptr %8, align 8
  %9 = load ptr, ptr %.val18, align 8
  %10 = getelementptr inbounds nuw i8, ptr %9, i64 8
  %11 = load ptr, ptr %10, align 8
  %12 = getelementptr inbounds nuw i8, ptr %2, i64 16
  store ptr %11, ptr %12, align 8
  %.val17 = load ptr, ptr %8, align 8
  %13 = getelementptr inbounds nuw i8, ptr %.val17, i64 8
  br label %30

14:                                               ; preds = %list_length.exit
  %15 = getelementptr i8, ptr %0, i64 16
  %.val16 = load ptr, ptr %15, align 8
  %16 = load ptr, ptr %.val16, align 8
  %17 = getelementptr inbounds nuw i8, ptr %16, i64 8
  %18 = load ptr, ptr %17, align 8
  %19 = getelementptr inbounds nuw i8, ptr %2, i64 8
  store ptr %18, ptr %19, align 8
  %.val15 = load ptr, ptr %15, align 8
  %20 = getelementptr inbounds nuw i8, ptr %.val15, i64 8
  %21 = load ptr, ptr %20, align 8
  %22 = getelementptr inbounds nuw i8, ptr %21, i64 8
  %23 = load ptr, ptr %22, align 8
  %24 = getelementptr inbounds nuw i8, ptr %2, i64 16
  store ptr %23, ptr %24, align 8
  %.val = load ptr, ptr %15, align 8
  %25 = getelementptr inbounds nuw i8, ptr %.val, i64 16
  br label %30

list_length.exit.thread:                          ; preds = %1, %list_length.exit
  %26 = tail call zeroext i1 @errstart_cold(i32 noundef 21, ptr noundef null) #21
  tail call void @llvm.assume(i1 %26)
  %27 = tail call i32 @errcode(i32 noundef 16801924) #19
  %28 = tail call ptr @NameListToString(ptr noundef %0)
  %29 = tail call i32 (ptr, ...) @errmsg(ptr noundef nonnull @.str.23, ptr noundef %28) #19
  tail call void @errfinish(ptr noundef nonnull @.str.1, i32 noundef 3576, ptr noundef nonnull @__func__.makeRangeVarFromNameList) #19
  unreachable

30:                                               ; preds = %14, %7, %5
  %.sink.in = phi ptr [ %25, %14 ], [ %13, %7 ], [ %.val19, %5 ]
  %.sink = load ptr, ptr %.sink.in, align 8
  %31 = getelementptr inbounds nuw i8, ptr %.sink, i64 8
  %32 = load ptr, ptr %31, align 8
  %33 = getelementptr inbounds nuw i8, ptr %2, i64 24
  store ptr %32, ptr %33, align 8
  ret ptr %2
}